target datalayout = "e-m:e-p270:32:32-p271:32:32-p272:64:64-i64:64-i128:128-f80:128-n8:16:32:64-S128"
target triple = "x86_64-pc-linux-gnu"

%"class.TriBoolArray<421, int>::TriBoolAssigner" = type { %class.TriBool.base, ptr, i64 }
%class.TriBool.base = type { i8 }
%class.DirectiveSet = type { ptr, ptr, %class.TriBoolArray, [4 x i8], %class.CHeapBitMap, %class.CHeapBitMap, [27 x i8], i8, i8, i8, i8, i8, i64, i64, i8, i8, i8, i8, i8, i8, i8, i8, i8, i64, ptr, ptr, i8, i8, i8, i8, i8, i8, i8, i64 }
%class.TriBoolArray = type { [27 x i32] }
%class.CHeapBitMap = type <{ %class.GrowableBitMap, i8, [7 x i8] }>
%class.GrowableBitMap = type { %class.BitMap }
%class.BitMap = type { ptr, i64 }
%class.TriBool = type { i8, [3 x i8] }

@LogCompilation = external global i8, align 1
@ControlIntrinsic = external global ptr, align 8
@DisableIntrinsic = external global ptr, align 8
@PrintAssembly = external global i8, align 1
@PrintCompilation = external global i8, align 1
@PrintInlining = external global i8, align 1
@PrintNMethods = external global i8, align 1
@BackgroundCompilation = external global i8, align 1
@CompilerDirectivesIgnoreCompileCommands = external global i8, align 1
@RepeatCompilation = external global i64, align 8
@BlockLayoutByFrequency = external global i8, align 1
@PrintOptoAssembly = external global i8, align 1
@PrintIntrinsics = external global i8, align 1
@TraceSpilling = external global i8, align 1
@IncrementalInlineForceCleanup = external global i8, align 1
@MaxNodeLimit = external global i64, align 8

; Function Attrs: mustprogress nounwind uwtable
define linkonce_odr hidden void @_ZN7TriBoolC2Eh(ptr noundef nonnull align 4 dereferenceable(1) %0, i8 noundef zeroext %1) unnamed_addr #1 comdat align 2 {
  %3 = alloca ptr, align 8
  %4 = alloca i8, align 1
  store ptr %0, ptr %3, align 8
  store i8 %1, ptr %4, align 1
  %5 = load ptr, ptr %3, align 8
  %6 = load i8, ptr %4, align 1
  %7 = zext i8 %6 to i32
  %8 = and i32 %7, 3
  %9 = trunc i32 %8 to i8
  %10 = load i8, ptr %5, align 4
  %11 = and i8 %9, 3
  %12 = and i8 %10, -4
  %13 = or i8 %12, %11
  store i8 %13, ptr %5, align 4
  ret void
}

; Function Attrs: mustprogress nounwind uwtable
define linkonce_odr hidden void @_ZN12TriBoolArrayILm421EiE15TriBoolAssignerC2ERim(ptr noundef nonnull align 8 dereferenceable(24) %0, ptr noundef nonnull align 4 dereferenceable(4) %1, i64 noundef %2) unnamed_addr #1 comdat align 2 {
  %4 = alloca ptr, align 8
  %5 = alloca ptr, align 8
  %6 = alloca i64, align 8
  store ptr %0, ptr %4, align 8
  store ptr %1, ptr %5, align 8
  store i64 %2, ptr %6, align 8
  %7 = load ptr, ptr %4, align 8
  %8 = load ptr, ptr %5, align 8
  %9 = load i32, ptr %8, align 4
  %10 = load i64, ptr %6, align 8
  %11 = trunc i64 %10 to i32
  %12 = ashr i32 %9, %11
  %13 = trunc i32 %12 to i8
  call void @_ZN7TriBoolC2Eh(ptr noundef nonnull align 4 dereferenceable(1) %7, i8 noundef zeroext %13)
  %14 = getelementptr inbounds %"class.TriBoolArray<421, int>::TriBoolAssigner", ptr %7, i32 0, i32 1
  %15 = load ptr, ptr %5, align 8
  store ptr %15, ptr %14, align 8
  %16 = getelementptr inbounds %"class.TriBoolArray<421, int>::TriBoolAssigner", ptr %7, i32 0, i32 2
  %17 = load i64, ptr %6, align 8
  store i64 %17, ptr %16, align 8
  ret void
}

; Function Attrs: mustprogress nounwind uwtable
define linkonce_odr hidden noundef nonnull align 8 dereferenceable(24) ptr @_ZN12TriBoolArrayILm421EiE15TriBoolAssigneraSE7TriBool(ptr noundef nonnull align 8 dereferenceable(24) %0, ptr noundef %1) #1 comdat align 2 {
  %3 = alloca ptr, align 8
  %4 = alloca ptr, align 8
  store ptr %0, ptr %3, align 8
  store ptr %1, ptr %4, align 8
  %5 = load ptr, ptr %3, align 8
  %6 = load i8, ptr %5, align 8
  %7 = and i8 %6, 3
  %8 = zext i8 %7 to i32
  %9 = trunc i32 %8 to i8
  %10 = zext i8 %9 to i32
  %11 = getelementptr inbounds %"class.TriBoolArray<421, int>::TriBoolAssigner", ptr %5, i32 0, i32 2
  %12 = load i64, ptr %11, align 8
  %13 = trunc i64 %12 to i32
  %14 = shl i32 %10, %13
  %15 = getelementptr inbounds %"class.TriBoolArray<421, int>::TriBoolAssigner", ptr %5, i32 0, i32 1
  %16 = load ptr, ptr %15, align 8
  %17 = load i32, ptr %16, align 4
  %18 = xor i32 %17, %14
  store i32 %18, ptr %16, align 4
  %19 = load i8, ptr %1, align 4
  %20 = and i8 %19, 3
  %21 = zext i8 %20 to i32
  %22 = trunc i32 %21 to i8
  %23 = zext i8 %22 to i32
  %24 = trunc i32 %23 to i8
  %25 = load i8, ptr %5, align 8
  %26 = and i8 %24, 3
  %27 = and i8 %25, -4
  %28 = or i8 %27, %26
  store i8 %28, ptr %5, align 8
  %29 = load i8, ptr %5, align 8
  %30 = and i8 %29, 3
  %31 = zext i8 %30 to i32
  %32 = trunc i32 %31 to i8
  %33 = zext i8 %32 to i32
  %34 = getelementptr inbounds %"class.TriBoolArray<421, int>::TriBoolAssigner", ptr %5, i32 0, i32 2
  %35 = load i64, ptr %34, align 8
  %36 = trunc i64 %35 to i32
  %37 = shl i32 %33, %36
  %38 = getelementptr inbounds %"class.TriBoolArray<421, int>::TriBoolAssigner", ptr %5, i32 0, i32 1
  %39 = load ptr, ptr %38, align 8
  %40 = load i32, ptr %39, align 4
  %41 = or i32 %40, %37
  store i32 %41, ptr %39, align 4
  ret ptr %5
}

; Function Attrs: mustprogress nounwind uwtable
define linkonce_odr hidden void @_ZN12TriBoolArrayILm421EiEixEm(ptr dead_on_unwind noalias writable sret(%"class.TriBoolArray<421, int>::TriBoolAssigner") align 8 %0, ptr noundef nonnull align 4 dereferenceable(108) %1, i64 noundef %2) #1 comdat align 2 {
  %4 = alloca ptr, align 8
  %5 = alloca ptr, align 8
  %6 = alloca i64, align 8
  %7 = alloca i64, align 8
  %8 = alloca i64, align 8
  store ptr %0, ptr %4, align 8
  store ptr %1, ptr %5, align 8
  store i64 %2, ptr %6, align 8
  %9 = load ptr, ptr %5, align 8
  %10 = load i64, ptr %6, align 8
  %11 = udiv i64 %10, 16
  store i64 %11, ptr %7, align 8
  %12 = load i64, ptr %6, align 8
  %13 = urem i64 %12, 16
  store i64 %13, ptr %8, align 8
  %14 = getelementptr inbounds %class.TriBoolArray, ptr %9, i32 0, i32 0
  %15 = load i64, ptr %7, align 8
  %16 = getelementptr inbounds [27 x i32], ptr %14, i64 0, i64 %15
  %17 = load i64, ptr %8, align 8
  %18 = mul i64 2, %17
  call void @_ZN12TriBoolArrayILm421EiE15TriBoolAssignerC2ERim(ptr noundef nonnull align 8 dereferenceable(24) %0, ptr noundef nonnull align 4 dereferenceable(4) %16, i64 noundef %18)
  ret void
}

; Function Attrs: mustprogress nounwind uwtable
define linkonce_odr hidden void @_ZN7TriBoolC2ERKS_(ptr noundef nonnull align 4 dereferenceable(1) %0, ptr noundef nonnull align 4 dereferenceable(1) %1) unnamed_addr #1 comdat align 2 {
  %3 = alloca ptr, align 8
  %4 = alloca ptr, align 8
  store ptr %0, ptr %3, align 8
  store ptr %1, ptr %4, align 8
  %5 = load ptr, ptr %3, align 8
  %6 = load ptr, ptr %4, align 8
  %7 = load i8, ptr %6, align 4
  %8 = and i8 %7, 3
  %9 = zext i8 %8 to i32
  %10 = trunc i32 %9 to i8
  %11 = load i8, ptr %5, align 4
  %12 = and i8 %10, 3
  %13 = and i8 %11, -4
  %14 = or i8 %13, %12
  store i8 %14, ptr %5, align 4
  ret void
}

; Function Attrs: mustprogress nounwind uwtable
define linkonce_odr hidden noundef zeroext i1 @_ZNK7TriBool10is_defaultEv(ptr noundef nonnull align 4 dereferenceable(1) %0) #1 comdat align 2 {
  %2 = alloca ptr, align 8
  store ptr %0, ptr %2, align 8
  %3 = load ptr, ptr %2, align 8
  %4 = load i8, ptr %3, align 4
  %5 = and i8 %4, 3
  %6 = zext i8 %5 to i32
  %7 = ashr i32 %6, 1
  %8 = icmp ne i32 %7, 0
  %9 = xor i1 %8, true
  ret i1 %9
}

; Function Attrs: mustprogress nounwind uwtable
define linkonce_odr hidden void @_ZN12TriBoolArrayILm421EiE7fill_inERK7TriBool(ptr noundef nonnull align 4 dereferenceable(108) %0, ptr noundef nonnull align 4 dereferenceable(1) %1) #1 comdat align 2 {
  %3 = alloca ptr, align 8
  %4 = alloca ptr, align 8
  %5 = alloca i64, align 8
  %6 = alloca %class.TriBool, align 4
  %7 = alloca %"class.TriBoolArray<421, int>::TriBoolAssigner", align 8
  store ptr %0, ptr %3, align 8
  store ptr %1, ptr %4, align 8
  %8 = load ptr, ptr %3, align 8
  %9 = load ptr, ptr %4, align 8
  %10 = call noundef zeroext i1 @_ZNK7TriBool10is_defaultEv(ptr noundef nonnull align 4 dereferenceable(1) %9)
  br i1 %10, label %11, label %14

11:                                               ; preds = %2
  %12 = getelementptr inbounds %class.TriBoolArray, ptr %8, i32 0, i32 0
  %13 = getelementptr inbounds [27 x i32], ptr %12, i64 0, i64 0
  call void @llvm.memset.p0.i64(ptr align 4 %13, i8 0, i64 108, i1 false)
  br label %26

14:                                               ; preds = %2
  store i64 0, ptr %5, align 8
  br label %15

15:                                               ; preds = %22, %14
  %16 = load i64, ptr %5, align 8
  %17 = icmp ult i64 %16, 421
  br i1 %17, label %18, label %25

18:                                               ; preds = %15
  %19 = load ptr, ptr %4, align 8
  call void @_ZN7TriBoolC2ERKS_(ptr noundef nonnull align 4 dereferenceable(1) %6, ptr noundef nonnull align 4 dereferenceable(1) %19)
  %20 = load i64, ptr %5, align 8
  call void @_ZN12TriBoolArrayILm421EiEixEm(ptr dead_on_unwind writable sret(%"class.TriBoolArray<421, int>::TriBoolAssigner") align 8 %7, ptr noundef nonnull align 4 dereferenceable(108) %8, i64 noundef %20)
  %21 = call noundef nonnull align 8 dereferenceable(24) ptr @_ZN12TriBoolArrayILm421EiE15TriBoolAssigneraSE7TriBool(ptr noundef nonnull align 8 dereferenceable(24) %7, ptr noundef %6)
  br label %22

22:                                               ; preds = %18
  %23 = load i64, ptr %5, align 8
  %24 = add i64 %23, 1
  store i64 %24, ptr %5, align 8
  br label %15, !llvm.loop !13

25:                                               ; preds = %15
  br label %26

26:                                               ; preds = %25, %11
  ret void
}

; Function Attrs: mustprogress nounwind uwtable
define linkonce_odr hidden void @_ZN7TriBoolC2Ev(ptr noundef nonnull align 4 dereferenceable(1) %0) unnamed_addr #1 comdat align 2 {
  %2 = alloca ptr, align 8
  store ptr %0, ptr %2, align 8
  %3 = load ptr, ptr %2, align 8
  %4 = load i8, ptr %3, align 4
  %5 = and i8 %4, -4
  %6 = or i8 %5, 0
  store i8 %6, ptr %3, align 4
  ret void
}

; Function Attrs: mustprogress nounwind uwtable
define linkonce_odr hidden void @_ZN12TriBoolArrayILm421EiEC2Ev(ptr noundef nonnull align 4 dereferenceable(108) %0) unnamed_addr #1 comdat align 2 {
  %2 = alloca ptr, align 8
  store ptr %0, ptr %2, align 8
  ret void
}

; Function Attrs: mustprogress nounwind uwtable
define hidden void @_ZN12DirectiveSetC2EP18CompilerDirectives(ptr noundef nonnull align 8 dereferenceable(280) %0, ptr noundef %1) unnamed_addr #1 align 2 {
  %3 = alloca ptr, align 8
  %4 = alloca ptr, align 8
  %5 = alloca %class.TriBool, align 4
  store ptr %0, ptr %3, align 8
  store ptr %1, ptr %4, align 8
  %6 = load ptr, ptr %3, align 8
  %7 = getelementptr inbounds %class.DirectiveSet, ptr %6, i32 0, i32 0
  store ptr null, ptr %7, align 8
  %8 = getelementptr inbounds %class.DirectiveSet, ptr %6, i32 0, i32 1
  %9 = load ptr, ptr %4, align 8
  store ptr %9, ptr %8, align 8
  %10 = getelementptr inbounds %class.DirectiveSet, ptr %6, i32 0, i32 2
  call void @_ZN12TriBoolArrayILm421EiEC2Ev(ptr noundef nonnull align 4 dereferenceable(108) %10)
  %11 = getelementptr inbounds %class.DirectiveSet, ptr %6, i32 0, i32 4
  call void @_ZN11CHeapBitMapC1Em8MEMFLAGSb(ptr noundef nonnull align 8 dereferenceable(17) %11, i64 noundef 74, i8 noundef zeroext 7, i1 noundef zeroext true)
  %12 = getelementptr inbounds %class.DirectiveSet, ptr %6, i32 0, i32 5
  call void @_ZN11CHeapBitMapC1Em8MEMFLAGSb(ptr noundef nonnull align 8 dereferenceable(17) %12, i64 noundef 16, i8 noundef zeroext 7, i1 noundef zeroext true)
  %13 = getelementptr inbounds %class.DirectiveSet, ptr %6, i32 0, i32 7
  store i8 0, ptr %13, align 1
  %14 = getelementptr inbounds %class.DirectiveSet, ptr %6, i32 0, i32 8
  store i8 0, ptr %14, align 4
  %15 = getelementptr inbounds %class.DirectiveSet, ptr %6, i32 0, i32 9
  store i8 0, ptr %15, align 1
  %16 = getelementptr inbounds %class.DirectiveSet, ptr %6, i32 0, i32 10
  store i8 0, ptr %16, align 2
  %17 = load i8, ptr @LogCompilation, align 1
  %18 = trunc i8 %17 to i1
  %19 = getelementptr inbounds %class.DirectiveSet, ptr %6, i32 0, i32 11
  %20 = zext i1 %18 to i8
  store i8 %20, ptr %19, align 1
  %21 = getelementptr inbounds %class.DirectiveSet, ptr %6, i32 0, i32 12
  store i64 0, ptr %21, align 8
  %22 = getelementptr inbounds %class.DirectiveSet, ptr %6, i32 0, i32 13
  store i64 0, ptr %22, align 8
  %23 = load i8, ptr @PrintAssembly, align 1
  %24 = trunc i8 %23 to i1
  %25 = getelementptr inbounds %class.DirectiveSet, ptr %6, i32 0, i32 14
  %26 = zext i1 %24 to i8
  store i8 %26, ptr %25, align 8
  %27 = load i8, ptr @PrintCompilation, align 1
  %28 = trunc i8 %27 to i1
  %29 = getelementptr inbounds %class.DirectiveSet, ptr %6, i32 0, i32 15
  %30 = zext i1 %28 to i8
  store i8 %30, ptr %29, align 1
  %31 = load i8, ptr @PrintInlining, align 1
  %32 = trunc i8 %31 to i1
  %33 = getelementptr inbounds %class.DirectiveSet, ptr %6, i32 0, i32 16
  %34 = zext i1 %32 to i8
  store i8 %34, ptr %33, align 2
  %35 = load i8, ptr @PrintNMethods, align 1
  %36 = trunc i8 %35 to i1
  %37 = getelementptr inbounds %class.DirectiveSet, ptr %6, i32 0, i32 17
  %38 = zext i1 %36 to i8
  store i8 %38, ptr %37, align 1
  %39 = load i8, ptr @BackgroundCompilation, align 1
  %40 = trunc i8 %39 to i1
  %41 = getelementptr inbounds %class.DirectiveSet, ptr %6, i32 0, i32 18
  %42 = zext i1 %40 to i8
  store i8 %42, ptr %41, align 4
  %43 = getelementptr inbounds %class.DirectiveSet, ptr %6, i32 0, i32 19
  store i8 0, ptr %43, align 1
  %44 = getelementptr inbounds %class.DirectiveSet, ptr %6, i32 0, i32 20
  store i8 0, ptr %44, align 2
  %45 = getelementptr inbounds %class.DirectiveSet, ptr %6, i32 0, i32 21
  store i8 0, ptr %45, align 1
  %46 = load i8, ptr @CompilerDirectivesIgnoreCompileCommands, align 1
  %47 = trunc i8 %46 to i1
  %48 = getelementptr inbounds %class.DirectiveSet, ptr %6, i32 0, i32 22
  %49 = zext i1 %47 to i8
  store i8 %49, ptr %48, align 8
  %50 = load i64, ptr @RepeatCompilation, align 8
  %51 = getelementptr inbounds %class.DirectiveSet, ptr %6, i32 0, i32 23
  store i64 %50, ptr %51, align 8
  %52 = load ptr, ptr @DisableIntrinsic, align 8
  %53 = getelementptr inbounds %class.DirectiveSet, ptr %6, i32 0, i32 24
  store ptr %52, ptr %53, align 8
  %54 = load ptr, ptr @ControlIntrinsic, align 8
  %55 = getelementptr inbounds %class.DirectiveSet, ptr %6, i32 0, i32 25
  store ptr %54, ptr %55, align 8
  %56 = load i8, ptr @BlockLayoutByFrequency, align 1
  %57 = trunc i8 %56 to i1
  %58 = getelementptr inbounds %class.DirectiveSet, ptr %6, i32 0, i32 26
  %59 = zext i1 %57 to i8
  store i8 %59, ptr %58, align 8
  %60 = load i8, ptr @PrintOptoAssembly, align 1
  %61 = trunc i8 %60 to i1
  %62 = getelementptr inbounds %class.DirectiveSet, ptr %6, i32 0, i32 27
  %63 = zext i1 %61 to i8
  store i8 %63, ptr %62, align 1
  %64 = load i8, ptr @PrintIntrinsics, align 1
  %65 = trunc i8 %64 to i1
  %66 = getelementptr inbounds %class.DirectiveSet, ptr %6, i32 0, i32 28
  %67 = zext i1 %65 to i8
  store i8 %67, ptr %66, align 2
  %68 = load i8, ptr @TraceSpilling, align 1
  %69 = trunc i8 %68 to i1
  %70 = getelementptr inbounds %class.DirectiveSet, ptr %6, i32 0, i32 29
  %71 = zext i1 %69 to i8
  store i8 %71, ptr %70, align 1
  %72 = getelementptr inbounds %class.DirectiveSet, ptr %6, i32 0, i32 30
  store i8 0, ptr %72, align 4
  %73 = getelementptr inbounds %class.DirectiveSet, ptr %6, i32 0, i32 31
  store i8 0, ptr %73, align 1
  %74 = load i8, ptr @IncrementalInlineForceCleanup, align 1
  %75 = trunc i8 %74 to i1
  %76 = getelementptr inbounds %class.DirectiveSet, ptr %6, i32 0, i32 32
  %77 = zext i1 %75 to i8
  store i8 %77, ptr %76, align 2
  %78 = load i64, ptr @MaxNodeLimit, align 8
  %79 = getelementptr inbounds %class.DirectiveSet, ptr %6, i32 0, i32 33
  store i64 %78, ptr %79, align 8
  %80 = getelementptr inbounds %class.DirectiveSet, ptr %6, i32 0, i32 6
  %81 = getelementptr inbounds [27 x i8], ptr %80, i64 0, i64 0
  call void @llvm.memset.p0.i64(ptr align 8 %81, i8 0, i64 27, i1 false)
  %82 = getelementptr inbounds %class.DirectiveSet, ptr %6, i32 0, i32 2
  call void @_ZN7TriBoolC2Ev(ptr noundef nonnull align 4 dereferenceable(1) %5)
  call void @_ZN12TriBoolArrayILm421EiE7fill_inERK7TriBool(ptr noundef nonnull align 4 dereferenceable(108) %82, ptr noundef nonnull align 4 dereferenceable(1) %5)
  ret void
}