; Function Attrs: mustprogress nounwind uwtable
define hidden void @_ZN12DirectiveSetC2EP18CompilerDirectives(ptr noundef nonnull align 8 dereferenceable(280) %0, ptr noundef %1) unnamed_addr #0 align 2 {
_ZN12TriBoolArrayILm421EiE7fill_inERK7TriBool.exit:
  store ptr null, ptr %0, align 8
  %2 = getelementptr inbounds i8, ptr %0, i64 8
  store ptr %1, ptr %2, align 8
  %3 = getelementptr inbounds i8, ptr %0, i64 16
  %4 = getelementptr inbounds i8, ptr %0, i64 128
  tail call void @_ZN11CHeapBitMapC1Em8MEMFLAGSb(ptr noundef nonnull align 8 dereferenceable(17) %4, i64 noundef 74, i8 noundef zeroext 7, i1 noundef zeroext true) #14
  %5 = getelementptr inbounds i8, ptr %0, i64 152
  tail call void @_ZN11CHeapBitMapC1Em8MEMFLAGSb(ptr noundef nonnull align 8 dereferenceable(17) %5, i64 noundef 16, i8 noundef zeroext 7, i1 noundef zeroext true) #14
  %6 = getelementptr inbounds i8, ptr %0, i64 203
  store i32 0, ptr %6, align 1
  %7 = load i8, ptr @LogCompilation, align 1
  %8 = getelementptr inbounds i8, ptr %0, i64 207
  %9 = and i8 %7, 1
  store i8 %9, ptr %8, align 1
  %10 = getelementptr inbounds i8, ptr %0, i64 208
  tail call void @llvm.memset.p0.i64(ptr noundef nonnull align 8 dereferenceable(16) %10, i8 0, i64 16, i1 false)
  %11 = load i8, ptr @PrintAssembly, align 1
  %12 = getelementptr inbounds i8, ptr %0, i64 224
  %13 = and i8 %11, 1
  store i8 %13, ptr %12, align 8
  %14 = load i8, ptr @PrintCompilation, align 1
  %15 = getelementptr inbounds i8, ptr %0, i64 225
  %16 = and i8 %14, 1
  store i8 %16, ptr %15, align 1
  %17 = load i8, ptr @PrintInlining, align 1
  %18 = getelementptr inbounds i8, ptr %0, i64 226
  %19 = and i8 %17, 1
  store i8 %19, ptr %18, align 2
  %20 = load i8, ptr @PrintNMethods, align 1
  %21 = getelementptr inbounds i8, ptr %0, i64 227
  %22 = and i8 %20, 1
  store i8 %22, ptr %21, align 1
  %23 = load i8, ptr @BackgroundCompilation, align 1
  %24 = getelementptr inbounds i8, ptr %0, i64 228
  %25 = and i8 %23, 1
  store i8 %25, ptr %24, align 4
  %26 = getelementptr inbounds i8, ptr %0, i64 229
  store i8 0, ptr %26, align 1
  %27 = getelementptr inbounds i8, ptr %0, i64 230
  store i8 0, ptr %27, align 2
  %28 = getelementptr inbounds i8, ptr %0, i64 231
  store i8 0, ptr %28, align 1
  %29 = load i8, ptr @CompilerDirectivesIgnoreCompileCommands, align 1
  %30 = getelementptr inbounds i8, ptr %0, i64 232
  %31 = and i8 %29, 1
  store i8 %31, ptr %30, align 8
  %32 = load i64, ptr @RepeatCompilation, align 8
  %33 = getelementptr inbounds i8, ptr %0, i64 240
  store i64 %32, ptr %33, align 8
  %34 = load ptr, ptr @DisableIntrinsic, align 8
  %35 = getelementptr inbounds i8, ptr %0, i64 248
  store ptr %34, ptr %35, align 8
  %36 = load ptr, ptr @ControlIntrinsic, align 8
  %37 = getelementptr inbounds i8, ptr %0, i64 256
  store ptr %36, ptr %37, align 8
  %38 = load i8, ptr @BlockLayoutByFrequency, align 1
  %39 = getelementptr inbounds i8, ptr %0, i64 264
  %40 = and i8 %38, 1
  store i8 %40, ptr %39, align 8
  %41 = load i8, ptr @PrintOptoAssembly, align 1
  %42 = getelementptr inbounds i8, ptr %0, i64 265
  %43 = and i8 %41, 1
  store i8 %43, ptr %42, align 1
  %44 = load i8, ptr @PrintIntrinsics, align 1
  %45 = getelementptr inbounds i8, ptr %0, i64 266
  %46 = and i8 %44, 1
  store i8 %46, ptr %45, align 2
  %47 = load i8, ptr @TraceSpilling, align 1
  %48 = getelementptr inbounds i8, ptr %0, i64 267
  %49 = and i8 %47, 1
  store i8 %49, ptr %48, align 1
  %50 = getelementptr inbounds i8, ptr %0, i64 268
  store i8 0, ptr %50, align 4
  %51 = getelementptr inbounds i8, ptr %0, i64 269
  store i8 0, ptr %51, align 1
  %52 = load i8, ptr @IncrementalInlineForceCleanup, align 1
  %53 = getelementptr inbounds i8, ptr %0, i64 270
  %54 = and i8 %52, 1
  store i8 %54, ptr %53, align 2
  %55 = load i64, ptr @MaxNodeLimit, align 8
  %56 = getelementptr inbounds i8, ptr %0, i64 272
  store i64 %55, ptr %56, align 8
  %57 = getelementptr inbounds i8, ptr %0, i64 176
  tail call void @llvm.memset.p0.i64(ptr noundef nonnull align 8 dereferenceable(27) %57, i8 0, i64 27, i1 false)
  tail call void @llvm.memset.p0.i64(ptr noundef nonnull align 8 dereferenceable(108) %3, i8 0, i64 108, i1 false)
  ret void
}